; Function Attrs: mustprogress uwtable
define void @_ZN12CFrmSettings8helpSlotEv(ptr nonnull readnone align 8 captures(none) %0) #0 align 2 personality ptr @__gxx_personality_v0 {
  %2 = alloca %class.QUrl, align 8
  %3 = alloca %class.QString, align 8
  call void @llvm.lifetime.start.p0(i64 8, ptr nonnull %2) #23
  call void @llvm.lifetime.start.p0(i64 24, ptr nonnull %3) #23
  store ptr null, ptr %3, align 8, !tbaa !12
  %4 = getelementptr inbounds nuw i8, ptr %3, i64 8
  store ptr @.str.30, ptr %4, align 8, !tbaa !16
  %5 = getelementptr inbounds nuw i8, ptr %3, i64 16
  store i64 43, ptr %5, align 8, !tbaa !97
  invoke void @_ZN4QUrlC1ERK7QStringNS_11ParsingModeE(ptr noundef nonnull align 8 dereferenceable(8) %2, ptr noundef nonnull align 8 dereferenceable(24) %3, i32 noundef 0)
          to label %6 unwind label %13

6:                                                ; preds = %1
  %7 = invoke noundef zeroext i1 @_ZN16QDesktopServices7openUrlERK4QUrl(ptr noundef nonnull align 8 dereferenceable(8) %2)
          to label %8 unwind label %15

8:                                                ; preds = %6
  call void @_ZN4QUrlD1Ev(ptr noundef nonnull align 8 dereferenceable(8) %2) #23
  %9 = load ptr, ptr %3, align 8, !tbaa !12
  %.not.i.i.i = icmp eq ptr %9, null
  br i1 %.not.i.i.i, label %_ZN17QArrayDataPointerIDsED2Ev.exit, label %_ZN17QArrayDataPointerIDsE5derefEv.exit.i.i

_ZN17QArrayDataPointerIDsE5derefEv.exit.i.i:      ; preds = %8
  %10 = atomicrmw sub ptr %9, i32 1 seq_cst, align 4
  %.not.i.i = icmp eq i32 %10, 1
  br i1 %.not.i.i, label %11, label %_ZN17QArrayDataPointerIDsED2Ev.exit

11:                                               ; preds = %_ZN17QArrayDataPointerIDsE5derefEv.exit.i.i
  %12 = load ptr, ptr %3, align 8, !tbaa !12
  call void @_ZN10QArrayData10deallocateEPS_xx(ptr noundef %12, i64 noundef 2, i64 noundef 8) #23
  br label %_ZN17QArrayDataPointerIDsED2Ev.exit

_ZN17QArrayDataPointerIDsED2Ev.exit:              ; preds = %11, %_ZN17QArrayDataPointerIDsE5derefEv.exit.i.i, %8
  call void @llvm.lifetime.end.p0(i64 24, ptr nonnull %3) #23
  call void @llvm.lifetime.end.p0(i64 8, ptr nonnull %2) #23
  ret void

13:                                               ; preds = %1
  %14 = landingpad { ptr, i32 }
          cleanup
  br label %17

15:                                               ; preds = %6
  %16 = landingpad { ptr, i32 }
          cleanup
  call void @_ZN4QUrlD1Ev(ptr noundef nonnull align 8 dereferenceable(8) %2) #23
  br label %17

17:                                               ; preds = %15, %13
  %.pn = phi { ptr, i32 } [ %16, %15 ], [ %14, %13 ]
  %18 = load ptr, ptr %3, align 8, !tbaa !12
  %.not.i.i.i4 = icmp eq ptr %18, null
  br i1 %.not.i.i.i4, label %_ZN17QArrayDataPointerIDsED2Ev.exit11, label %_ZN17QArrayDataPointerIDsE5derefEv.exit.i.i5

_ZN17QArrayDataPointerIDsE5derefEv.exit.i.i5:     ; preds = %17
  %19 = atomicrmw sub ptr %18, i32 1 seq_cst, align 4
  %.not.i.i6 = icmp eq i32 %19, 1
  br i1 %.not.i.i6, label %20, label %_ZN17QArrayDataPointerIDsED2Ev.exit11

20:                                               ; preds = %_ZN17QArrayDataPointerIDsE5derefEv.exit.i.i5
  %21 = load ptr, ptr %3, align 8, !tbaa !12
  call void @_ZN10QArrayData10deallocateEPS_xx(ptr noundef %21, i64 noundef 2, i64 noundef 8) #23
  br label %_ZN17QArrayDataPointerIDsED2Ev.exit11

_ZN17QArrayDataPointerIDsED2Ev.exit11:            ; preds = %20, %_ZN17QArrayDataPointerIDsE5derefEv.exit.i.i5, %17
  call void @llvm.lifetime.end.p0(i64 24, ptr nonnull %3) #23
  call void @llvm.lifetime.end.p0(i64 8, ptr nonnull %2) #23
  resume { ptr, i32 } %.pn
}